; ModuleID = '11/156.c'
source_filename = "11/156.c"
target datalayout = "e-m:e-p270:32:32-p271:32:32-p272:64:64-i64:64-f80:128-n8:16:32:64-S128"
target triple = "x86_64-pc-linux-gnu"

@.str = private unnamed_addr constant [9 x i8] c"%d %d %d\00", align 1
@__const.main.mday = private unnamed_addr constant [12 x i32] [i32 31, i32 29, i32 31, i32 30, i32 31, i32 30, i32 31, i32 31, i32 30, i32 31, i32 30, i32 31], align 16
@__const.main.mday.1 = private unnamed_addr constant [12 x i32] [i32 31, i32 28, i32 31, i32 30, i32 31, i32 30, i32 31, i32 31, i32 30, i32 31, i32 30, i32 31], align 16
@.str.2 = private unnamed_addr constant [4 x i8] c"\0A%d\00", align 1

; Function Attrs: noinline nounwind uwtable
define dso_local i32 @main() #0 {
  %1 = alloca i32, align 4
  %2 = alloca i32, align 4
  %3 = alloca i32, align 4
  %4 = alloca i32, align 4
  %5 = alloca i32, align 4
  %6 = alloca i32, align 4
  %7 = alloca i32, align 4
  %8 = alloca i32, align 4
  %9 = alloca [12 x i32], align 16
  %10 = alloca [12 x i32], align 16
  store i32 0, i32* %1, align 4
  store i32 0, i32* %7, align 4
  store i32 0, i32* %8, align 4
  %11 = call i32 (i8*, ...) @__isoc99_scanf(i8* getelementptr inbounds ([9 x i8], [9 x i8]* @.str, i64 0, i64 0), i32* %2, i32* %3, i32* %4)
  %12 = load i32, i32* %3, align 4
  %13 = sub nsw i32 %12, 1
  store i32 %13, i32* %5, align 4
  %14 = load i32, i32* %2, align 4
  %15 = srem i32 %14, 4
  %16 = icmp eq i32 %15, 0
  br i1 %16, label %17, label %38

17:                                               ; preds = %0
  %18 = load i32, i32* %2, align 4
  %19 = srem i32 %18, 400
  %20 = icmp eq i32 %19, 0
  br i1 %20, label %21, label %38

21:                                               ; preds = %17
  %22 = bitcast [12 x i32]* %9 to i8*
  call void @llvm.memcpy.p0i8.p0i8.i64(i8* align 16 %22, i8* align 16 bitcast ([12 x i32]* @__const.main.mday to i8*), i64 48, i1 false)
  store i32 0, i32* %6, align 4
  br label %23

23:                                               ; preds = %34, %21
  %24 = load i32, i32* %6, align 4
  %25 = load i32, i32* %5, align 4
  %26 = icmp slt i32 %24, %25
  br i1 %26, label %27, label %37

27:                                               ; preds = %23
  %28 = load i32, i32* %7, align 4
  %29 = load i32, i32* %6, align 4
  %30 = sext i32 %29 to i64
  %31 = getelementptr inbounds [12 x i32], [12 x i32]* %9, i64 0, i64 %30
  %32 = load i32, i32* %31, align 4
  %33 = add nsw i32 %28, %32
  store i32 %33, i32* %7, align 4
  br label %34

34:                                               ; preds = %27
  %35 = load i32, i32* %6, align 4
  %36 = add nsw i32 %35, 1
  store i32 %36, i32* %6, align 4
  br label %23

37:                                               ; preds = %23
  br label %55

38:                                               ; preds = %17, %0
  %39 = bitcast [12 x i32]* %10 to i8*
  call void @llvm.memcpy.p0i8.p0i8.i64(i8* align 16 %39, i8* align 16 bitcast ([12 x i32]* @__const.main.mday.1 to i8*), i64 48, i1 false)
  store i32 0, i32* %6, align 4
  br label %40

40:                                               ; preds = %51, %38
  %41 = load i32, i32* %6, align 4
  %42 = load i32, i32* %5, align 4
  %43 = icmp slt i32 %41, %42
  br i1 %43, label %44, label %54

44:                                               ; preds = %40
  %45 = load i32, i32* %7, align 4
  %46 = load i32, i32* %6, align 4
  %47 = sext i32 %46 to i64
  %48 = getelementptr inbounds [12 x i32], [12 x i32]* %10, i64 0, i64 %47
  %49 = load i32, i32* %48, align 4
  %50 = add nsw i32 %45, %49
  store i32 %50, i32* %7, align 4
  br label %51

51:                                               ; preds = %44
  %52 = load i32, i32* %6, align 4
  %53 = add nsw i32 %52, 1
  store i32 %53, i32* %6, align 4
  br label %40

54:                                               ; preds = %40
  br label %55

55:                                               ; preds = %54, %37
  %56 = load i32, i32* %7, align 4
  %57 = load i32, i32* %4, align 4
  %58 = add nsw i32 %56, %57
  store i32 %58, i32* %8, align 4
  %59 = load i32, i32* %8, align 4
  %60 = call i32 (i8*, ...) @printf(i8* getelementptr inbounds ([4 x i8], [4 x i8]* @.str.2, i64 0, i64 0), i32 %59)
  ret i32 0
}

declare dso_local i32 @__isoc99_scanf(i8*, ...) #1

; Function Attrs: argmemonly nounwind willreturn
declare void @llvm.memcpy.p0i8.p0i8.i64(i8* noalias nocapture writeonly, i8* noalias nocapture readonly, i64, i1 immarg) #2

declare dso_local i32 @printf(i8*, ...) #1


!llvm.module.flags = !{!0}
!llvm.ident = !{!1}

!0 = !{i32 1, !"wchar_size", i32 4}
!1 = !{!"clang version 10.0.0-4ubuntu1 "}
